; Function Attrs: nounwind uwtable
define hidden i32 @mbedtls_ecdh_make_public(ptr noundef %0, ptr noundef %1, ptr noundef %2, i64 noundef %3, ptr noundef %4, ptr noundef %5) local_unnamed_addr #1 {
  %7 = getelementptr inbounds nuw i8, ptr %0, i64 8
  %8 = load i32, ptr %7, align 8, !tbaa !9
  %cond = icmp eq i32 %8, 1
  br i1 %cond, label %9, label %ecdh_make_public_internal.exit

9:                                                ; preds = %6
  %10 = getelementptr inbounds nuw i8, ptr %0, i64 16
  %11 = load i8, ptr %0, align 8, !tbaa !8
  %12 = zext i8 %11 to i32
  %13 = getelementptr inbounds nuw i8, ptr %0, i64 136
  %14 = load i64, ptr %13, align 8, !tbaa !10
  %15 = icmp eq i64 %14, 0
  br i1 %15, label %ecdh_make_public_internal.exit, label %16

16:                                               ; preds = %9
  %17 = getelementptr inbounds nuw i8, ptr %0, i64 208
  %18 = getelementptr inbounds nuw i8, ptr %0, i64 224
  %19 = tail call i32 @mbedtls_ecp_gen_privkey(ptr noundef nonnull %10, ptr noundef nonnull %17, ptr noundef %4, ptr noundef %5) #7
  %.not.i.i.i = icmp eq i32 %19, 0
  br i1 %.not.i.i.i, label %mbedtls_ecdh_gen_public.exit.i, label %ecdh_make_public_internal.exit

mbedtls_ecdh_gen_public.exit.i:                   ; preds = %16
  %20 = getelementptr inbounds nuw i8, ptr %0, i64 72
  %21 = tail call i32 @mbedtls_ecp_mul_restartable(ptr noundef nonnull %10, ptr noundef nonnull %18, ptr noundef nonnull %17, ptr noundef nonnull %20, ptr noundef %4, ptr noundef %5, ptr noundef null) #7
  %.not.i = icmp eq i32 %21, 0
  br i1 %.not.i, label %22, label %ecdh_make_public_internal.exit

22:                                               ; preds = %mbedtls_ecdh_gen_public.exit.i
  %23 = tail call i32 @mbedtls_ecp_tls_write_point(ptr noundef nonnull %10, ptr noundef nonnull %18, i32 noundef range(i32 0, 256) %12, ptr noundef %1, ptr noundef %2, i64 noundef %3) #7
  br label %ecdh_make_public_internal.exit

ecdh_make_public_internal.exit:                   ; preds = %22, %mbedtls_ecdh_gen_public.exit.i, %16, %9, %6
  %.0 = phi i32 [ -20352, %6 ], [ %23, %22 ], [ -20352, %9 ], [ %21, %mbedtls_ecdh_gen_public.exit.i ], [ %19, %16 ]
  ret i32 %.0
}